target datalayout = "e-m:e-p270:32:32-p271:32:32-p272:64:64-i64:64-i128:128-f80:128-n8:16:32:64-S128"
target triple = "x86_64-pc-linux-gnu"

%"class.std::__shared_count" = type { ptr }
%"struct.arrow::Datum" = type { %"class.std::variant" }
%"class.std::variant" = type { %"struct.std::__detail::__variant::_Variant_base.base", [7 x i8] }
%"struct.std::__detail::__variant::_Variant_base.base" = type { %"struct.std::__detail::__variant::_Move_assign_base.base" }
%"struct.std::__detail::__variant::_Move_assign_base.base" = type { %"struct.std::__detail::__variant::_Copy_assign_base.base" }
%"struct.std::__detail::__variant::_Copy_assign_base.base" = type { %"struct.std::__detail::__variant::_Move_ctor_base.base" }
%"struct.std::__detail::__variant::_Move_ctor_base.base" = type { %"struct.std::__detail::__variant::_Copy_ctor_base.base" }
%"struct.std::__detail::__variant::_Copy_ctor_base.base" = type { %"struct.std::__detail::__variant::_Variant_storage.base" }
%"struct.std::__detail::__variant::_Variant_storage.base" = type { %"union.std::__detail::__variant::_Variadic_union", i8 }
%"union.std::__detail::__variant::_Variadic_union" = type { %"union.std::__detail::__variant::_Variadic_union.7" }
%"union.std::__detail::__variant::_Variadic_union.7" = type { %"struct.std::__detail::__variant::_Uninitialized.8" }
%"struct.std::__detail::__variant::_Uninitialized.8" = type { %"struct.__gnu_cxx::__aligned_membuf" }
%"struct.__gnu_cxx::__aligned_membuf" = type { [16 x i8] }
%"class.std::__shared_ptr.23" = type { ptr, %"class.std::__shared_count" }
%"class.std::shared_ptr.22" = type { %"class.std::__shared_ptr.23" }
%"struct.std::__detail::__variant::_Variant_storage" = type { %"union.std::__detail::__variant::_Variadic_union", i8, [7 x i8] }
%"struct.std::__detail::__variant::_Uninitialized.10" = type { %"struct.__gnu_cxx::__aligned_membuf.11" }
%"struct.__gnu_cxx::__aligned_membuf.11" = type { [16 x i8] }
%"class.std::bad_variant_access" = type { %"class.std::exception", ptr }
%"class.std::exception" = type { ptr }

@.str.15 = private unnamed_addr constant [31 x i8] c"std::get: variant is valueless\00", align 1
@.str.16 = private unnamed_addr constant [34 x i8] c"std::get: wrong index for variant\00", align 1
@_ZTISt18bad_variant_access = linkonce_odr constant { ptr, ptr, ptr } { ptr getelementptr inbounds (ptr, ptr @_ZTVN10__cxxabiv120__si_class_type_infoE, i64 2), ptr @_ZTSSt18bad_variant_access, ptr @_ZTISt9exception }, comdat, align 8
@_ZTVSt18bad_variant_access = linkonce_odr unnamed_addr constant { [5 x ptr] } { [5 x ptr] [ptr null, ptr @_ZTISt18bad_variant_access, ptr @_ZNSt9exceptionD2Ev, ptr @_ZNSt18bad_variant_accessD0Ev, ptr @_ZNKSt18bad_variant_access4whatEv] }, comdat, align 8
@_ZTVSt9exception = available_externally unnamed_addr constant { [5 x ptr] } { [5 x ptr] [ptr null, ptr @_ZTISt9exception, ptr @_ZNSt9exceptionD1Ev, ptr @_ZNSt9exceptionD0Ev, ptr @_ZNKSt9exception4whatEv] }, align 8

; Function Attrs: mustprogress nounwind uwtable
define linkonce_odr noundef ptr @_ZNK9__gnu_cxx16__aligned_membufISt10shared_ptrIN5arrow9ArrayDataEEE7_M_addrEv(ptr noundef nonnull align 8 dereferenceable(16) %0) #0 comdat align 2 {
  %2 = alloca ptr, align 8
  store ptr %0, ptr %2, align 8, !tbaa !340
  %3 = load ptr, ptr %2, align 8
  %4 = getelementptr inbounds nuw %"struct.__gnu_cxx::__aligned_membuf.11", ptr %3, i32 0, i32 0
  ret ptr %4
}

; Function Attrs: mustprogress nounwind uwtable
define linkonce_odr noundef ptr @_ZNK9__gnu_cxx16__aligned_membufISt10shared_ptrIN5arrow9ArrayDataEEE6_M_ptrEv(ptr noundef nonnull align 8 dereferenceable(16) %0) #0 comdat align 2 {
  %2 = alloca ptr, align 8
  store ptr %0, ptr %2, align 8, !tbaa !340
  %3 = load ptr, ptr %2, align 8
  %4 = call noundef ptr @_ZNK9__gnu_cxx16__aligned_membufISt10shared_ptrIN5arrow9ArrayDataEEE7_M_addrEv(ptr noundef nonnull align 8 dereferenceable(16) %3) #5
  ret ptr %4
}

; Function Attrs: mustprogress nounwind uwtable
define linkonce_odr void @_ZNSt9exceptionC2Ev(ptr noundef nonnull align 8 dereferenceable(8) %0) unnamed_addr #0 comdat align 2 {
  %2 = alloca ptr, align 8
  store ptr %0, ptr %2, align 8, !tbaa !413
  %3 = load ptr, ptr %2, align 8
  store ptr getelementptr inbounds inrange(-16, 24) ({ [5 x ptr] }, ptr @_ZTVSt9exception, i32 0, i32 0, i32 2), ptr %3, align 8, !tbaa !165
  ret void
}

; Function Attrs: mustprogress nounwind uwtable
define linkonce_odr noundef nonnull align 8 dereferenceable(16) ptr @_ZNKRSt8__detail9__variant14_UninitializedISt10shared_ptrIN5arrow9ArrayDataEELb0EE6_M_getEv(ptr noundef nonnull align 8 dereferenceable(16) %0) #0 comdat align 2 {
  %2 = alloca ptr, align 8
  store ptr %0, ptr %2, align 8, !tbaa !320
  %3 = load ptr, ptr %2, align 8
  %4 = getelementptr inbounds nuw %"struct.std::__detail::__variant::_Uninitialized.10", ptr %3, i32 0, i32 0
  %5 = call noundef ptr @_ZNK9__gnu_cxx16__aligned_membufISt10shared_ptrIN5arrow9ArrayDataEEE6_M_ptrEv(ptr noundef nonnull align 8 dereferenceable(16) %4) #5
  ret ptr %5
}

; Function Attrs: mustprogress nounwind uwtable
define linkonce_odr void @_ZNSt18bad_variant_accessC2EPKc(ptr noundef nonnull align 8 dereferenceable(16) %0, ptr noundef %1) unnamed_addr #0 comdat align 2 {
  %3 = alloca ptr, align 8
  %4 = alloca ptr, align 8
  store ptr %0, ptr %3, align 8, !tbaa !408
  store ptr %1, ptr %4, align 8, !tbaa !91
  %5 = load ptr, ptr %3, align 8
  call void @_ZNSt9exceptionC2Ev(ptr noundef nonnull align 8 dereferenceable(8) %5) #5
  store ptr getelementptr inbounds inrange(-16, 24) ({ [5 x ptr] }, ptr @_ZTVSt18bad_variant_access, i32 0, i32 0, i32 2), ptr %5, align 8, !tbaa !165
  %6 = getelementptr inbounds nuw %"class.std::bad_variant_access", ptr %5, i32 0, i32 1
  %7 = load ptr, ptr %4, align 8, !tbaa !91
  store ptr %7, ptr %6, align 8, !tbaa !410
  ret void
}

; Function Attrs: mustprogress nounwind uwtable
define linkonce_odr noundef nonnull align 8 dereferenceable(16) ptr @_ZNSt8__detail9__variant7__get_nILm2ERKNS0_15_Variadic_unionIJN5arrow5Datum5EmptyESt10shared_ptrINS3_6ScalarEES6_INS3_9ArrayDataEES6_INS3_12ChunkedArrayEES6_INS3_11RecordBatchEES6_INS3_5TableEEEEEEEDcOT0_(ptr noundef nonnull align 8 dereferenceable(16) %0) #0 comdat {
  %2 = alloca ptr, align 8
  store ptr %0, ptr %2, align 8, !tbaa !314
  %3 = load ptr, ptr %2, align 8, !tbaa !314
  %4 = call noundef nonnull align 8 dereferenceable(16) ptr @_ZNKRSt8__detail9__variant14_UninitializedISt10shared_ptrIN5arrow9ArrayDataEELb0EE6_M_getEv(ptr noundef nonnull align 8 dereferenceable(16) %3) #5
  ret ptr %4
}

; Function Attrs: inlinehint mustprogress uwtable
define linkonce_odr void @_ZSt26__throw_bad_variant_accessPKc(ptr noundef %0) #3 comdat {
  %2 = alloca ptr, align 8
  store ptr %0, ptr %2, align 8, !tbaa !91
  %3 = call ptr @__cxa_allocate_exception(i64 16) #5
  %4 = load ptr, ptr %2, align 8, !tbaa !91
  call void @_ZNSt18bad_variant_accessC2EPKc(ptr noundef nonnull align 8 dereferenceable(16) %3, ptr noundef %4) #5
  call void @__cxa_throw(ptr %3, ptr @_ZTISt18bad_variant_access, ptr @_ZNSt9exceptionD2Ev) #20
  unreachable
}

; Function Attrs: mustprogress nounwind uwtable
define linkonce_odr noundef zeroext i1 @_ZNKSt8__detail9__variant16_Variant_storageILb0EJN5arrow5Datum5EmptyESt10shared_ptrINS2_6ScalarEES5_INS2_9ArrayDataEES5_INS2_12ChunkedArrayEES5_INS2_11RecordBatchEES5_INS2_5TableEEEE8_M_validEv(ptr noundef nonnull align 8 dereferenceable(17) %0) #0 comdat align 2 {
  %2 = alloca ptr, align 8
  store ptr %0, ptr %2, align 8, !tbaa !302
  ret i1 true
}

; Function Attrs: mustprogress nounwind uwtable
define linkonce_odr noundef nonnull align 8 dereferenceable(16) ptr @_ZNSt8__detail9__variant5__getILm2ERKSt7variantIJN5arrow5Datum5EmptyESt10shared_ptrINS3_6ScalarEES6_INS3_9ArrayDataEES6_INS3_12ChunkedArrayEES6_INS3_11RecordBatchEES6_INS3_5TableEEEEEEDcOT0_(ptr noundef nonnull align 8 dereferenceable(17) %0) #0 comdat {
  %2 = alloca ptr, align 8
  store ptr %0, ptr %2, align 8, !tbaa !75
  %3 = load ptr, ptr %2, align 8, !tbaa !75
  %4 = getelementptr inbounds nuw %"struct.std::__detail::__variant::_Variant_storage", ptr %3, i32 0, i32 0
  %5 = call noundef nonnull align 8 dereferenceable(16) ptr @_ZNSt8__detail9__variant7__get_nILm2ERKNS0_15_Variadic_unionIJN5arrow5Datum5EmptyESt10shared_ptrINS3_6ScalarEES6_INS3_9ArrayDataEES6_INS3_12ChunkedArrayEES6_INS3_11RecordBatchEES6_INS3_5TableEEEEEEEDcOT0_(ptr noundef nonnull align 8 dereferenceable(16) %4) #5
  ret ptr %5
}

; Function Attrs: inlinehint mustprogress uwtable
define linkonce_odr void @_ZSt26__throw_bad_variant_accessb(i1 noundef zeroext %0) #3 comdat {
  %2 = alloca i8, align 1
  %3 = zext i1 %0 to i8
  store i8 %3, ptr %2, align 1, !tbaa !81
  %4 = load i8, ptr %2, align 1, !tbaa !81, !range !257, !noundef !258
  %5 = trunc i8 %4 to i1
  %6 = call i1 @llvm.expect.i1(i1 %5, i1 false)
  br i1 %6, label %7, label %8

7:                                                ; preds = %1
  call void @_ZSt26__throw_bad_variant_accessPKc(ptr noundef @.str.15)
  br label %9

8:                                                ; preds = %1
  call void @_ZSt26__throw_bad_variant_accessPKc(ptr noundef @.str.16)
  br label %9

9:                                                ; preds = %8, %7
  ret void
}

; Function Attrs: mustprogress nounwind uwtable
define linkonce_odr noundef zeroext i1 @_ZNKSt7variantIJN5arrow5Datum5EmptyESt10shared_ptrINS0_6ScalarEES3_INS0_9ArrayDataEES3_INS0_12ChunkedArrayEES3_INS0_11RecordBatchEES3_INS0_5TableEEEE22valueless_by_exceptionEv(ptr noundef nonnull align 8 dereferenceable(17) %0) #0 comdat align 2 {
  %2 = alloca ptr, align 8
  store ptr %0, ptr %2, align 8, !tbaa !75
  %3 = load ptr, ptr %2, align 8
  %4 = call noundef zeroext i1 @_ZNKSt8__detail9__variant16_Variant_storageILb0EJN5arrow5Datum5EmptyESt10shared_ptrINS2_6ScalarEES5_INS2_9ArrayDataEES5_INS2_12ChunkedArrayEES5_INS2_11RecordBatchEES5_INS2_5TableEEEE8_M_validEv(ptr noundef nonnull align 8 dereferenceable(17) %3) #5
  %5 = xor i1 %4, true
  ret i1 %5
}

; Function Attrs: mustprogress uwtable
define linkonce_odr noundef nonnull align 8 dereferenceable(16) ptr @_ZSt3getILm2EJN5arrow5Datum5EmptyESt10shared_ptrINS0_6ScalarEES3_INS0_9ArrayDataEES3_INS0_12ChunkedArrayEES3_INS0_11RecordBatchEES3_INS0_5TableEEEERKNSt19variant_alternativeIXT_ESt7variantIJDpT0_EEE4typeERKSI_(ptr noundef nonnull align 8 dereferenceable(17) %0) #1 comdat {
  %2 = alloca ptr, align 8
  store ptr %0, ptr %2, align 8, !tbaa !75
  %3 = load ptr, ptr %2, align 8, !tbaa !75
  %4 = call noundef i64 @_ZNKSt7variantIJN5arrow5Datum5EmptyESt10shared_ptrINS0_6ScalarEES3_INS0_9ArrayDataEES3_INS0_12ChunkedArrayEES3_INS0_11RecordBatchEES3_INS0_5TableEEEE5indexEv(ptr noundef nonnull align 8 dereferenceable(17) %3) #5
  %5 = icmp ne i64 %4, 2
  br i1 %5, label %6, label %9

6:                                                ; preds = %1
  %7 = load ptr, ptr %2, align 8, !tbaa !75
  %8 = call noundef zeroext i1 @_ZNKSt7variantIJN5arrow5Datum5EmptyESt10shared_ptrINS0_6ScalarEES3_INS0_9ArrayDataEES3_INS0_12ChunkedArrayEES3_INS0_11RecordBatchEES3_INS0_5TableEEEE22valueless_by_exceptionEv(ptr noundef nonnull align 8 dereferenceable(17) %7) #5
  call void @_ZSt26__throw_bad_variant_accessb(i1 noundef zeroext %8)
  br label %9

9:                                                ; preds = %6, %1
  %10 = load ptr, ptr %2, align 8, !tbaa !75
  %11 = call noundef nonnull align 8 dereferenceable(16) ptr @_ZNSt8__detail9__variant5__getILm2ERKSt7variantIJN5arrow5Datum5EmptyESt10shared_ptrINS3_6ScalarEES6_INS3_9ArrayDataEES6_INS3_12ChunkedArrayEES6_INS3_11RecordBatchEES6_INS3_5TableEEEEEEDcOT0_(ptr noundef nonnull align 8 dereferenceable(17) %10) #5
  ret ptr %11
}

; Function Attrs: mustprogress nounwind uwtable
define linkonce_odr noundef i64 @_ZNKSt7variantIJN5arrow5Datum5EmptyESt10shared_ptrINS0_6ScalarEES3_INS0_9ArrayDataEES3_INS0_12ChunkedArrayEES3_INS0_11RecordBatchEES3_INS0_5TableEEEE5indexEv(ptr noundef nonnull align 8 dereferenceable(17) %0) #0 comdat align 2 {
  %2 = alloca ptr, align 8
  store ptr %0, ptr %2, align 8, !tbaa !75
  %3 = load ptr, ptr %2, align 8
  %4 = getelementptr inbounds nuw %"struct.std::__detail::__variant::_Variant_storage", ptr %3, i32 0, i32 1
  %5 = load i8, ptr %4, align 8, !tbaa !312
  %6 = zext i8 %5 to i64
  ret i64 %6
}

; Function Attrs: mustprogress uwtable
define linkonce_odr noundef nonnull align 8 dereferenceable(16) ptr @_ZSt3getISt10shared_ptrIN5arrow9ArrayDataEEJNS1_5Datum5EmptyES0_INS1_6ScalarEES3_S0_INS1_12ChunkedArrayEES0_INS1_11RecordBatchEES0_INS1_5TableEEEERKT_RKSt7variantIJDpT0_EE(ptr noundef nonnull align 8 dereferenceable(17) %0) #1 comdat {
  %2 = alloca ptr, align 8
  %3 = alloca i64, align 8
  store ptr %0, ptr %2, align 8, !tbaa !75
  call void @llvm.lifetime.start.p0(i64 8, ptr %3) #5
  store i64 2, ptr %3, align 8, !tbaa !43
  %4 = load ptr, ptr %2, align 8, !tbaa !75
  %5 = call noundef nonnull align 8 dereferenceable(16) ptr @_ZSt3getILm2EJN5arrow5Datum5EmptyESt10shared_ptrINS0_6ScalarEES3_INS0_9ArrayDataEES3_INS0_12ChunkedArrayEES3_INS0_11RecordBatchEES3_INS0_5TableEEEERKNSt19variant_alternativeIXT_ESt7variantIJDpT0_EEE4typeERKSI_(ptr noundef nonnull align 8 dereferenceable(17) %4)
  call void @llvm.lifetime.end.p0(i64 8, ptr %3) #5
  ret ptr %5
}

; Function Attrs: mustprogress nounwind uwtable
define linkonce_odr noundef i32 @_ZNK5arrow5Datum4kindEv(ptr noundef nonnull align 8 dereferenceable(24) %0) #0 comdat align 2 {
  %2 = alloca i32, align 4
  %3 = alloca ptr, align 8
  store ptr %0, ptr %3, align 8, !tbaa !53
  %4 = load ptr, ptr %3, align 8
  %5 = getelementptr inbounds nuw %"struct.arrow::Datum", ptr %4, i32 0, i32 0
  %6 = call noundef i64 @_ZNKSt7variantIJN5arrow5Datum5EmptyESt10shared_ptrINS0_6ScalarEES3_INS0_9ArrayDataEES3_INS0_12ChunkedArrayEES3_INS0_11RecordBatchEES3_INS0_5TableEEEE5indexEv(ptr noundef nonnull align 8 dereferenceable(17) %5) #5
  switch i64 %6, label %13 [
    i64 0, label %7
    i64 1, label %8
    i64 2, label %9
    i64 3, label %10
    i64 4, label %11
    i64 5, label %12
  ]

7:                                                ; preds = %1
  store i32 0, ptr %2, align 4
  br label %14

8:                                                ; preds = %1
  store i32 1, ptr %2, align 4
  br label %14

9:                                                ; preds = %1
  store i32 2, ptr %2, align 4
  br label %14

10:                                               ; preds = %1
  store i32 3, ptr %2, align 4
  br label %14

11:                                               ; preds = %1
  store i32 4, ptr %2, align 4
  br label %14

12:                                               ; preds = %1
  store i32 5, ptr %2, align 4
  br label %14

13:                                               ; preds = %1
  store i32 0, ptr %2, align 4
  br label %14

14:                                               ; preds = %13, %12, %11, %10, %9, %8, %7
  %15 = load i32, ptr %2, align 4
  ret i32 %15
}

; Function Attrs: mustprogress uwtable
define void @_ZNK5arrow5Datum10make_arrayEv(ptr dead_on_unwind noalias writable sret(%"class.std::shared_ptr.22") align 8 %0, ptr noundef nonnull align 8 dereferenceable(24) %1) #1 align 2 {
  %3 = alloca ptr, align 8
  %4 = alloca ptr, align 8
  store ptr %0, ptr %3, align 8
  store ptr %1, ptr %4, align 8, !tbaa !53
  %5 = load ptr, ptr %4, align 8
  br label %6

6:                                                ; preds = %7, %2
  br i1 false, label %7, label %8

7:                                                ; preds = %6
  br label %6, !llvm.loop !196

8:                                                ; preds = %6
  br label %9

9:                                                ; preds = %10, %8
  br i1 false, label %10, label %12

10:                                               ; preds = %9
  %11 = call noundef i32 @_ZNK5arrow5Datum4kindEv(ptr noundef nonnull align 8 dereferenceable(24) %5)
  br label %9, !llvm.loop !198

12:                                               ; preds = %9
  br label %13

13:                                               ; preds = %14, %12
  br i1 false, label %14, label %15

14:                                               ; preds = %13
  br label %13, !llvm.loop !199

15:                                               ; preds = %13
  %16 = getelementptr inbounds nuw %"struct.arrow::Datum", ptr %5, i32 0, i32 0
  %17 = call noundef nonnull align 8 dereferenceable(16) ptr @_ZSt3getISt10shared_ptrIN5arrow9ArrayDataEEJNS1_5Datum5EmptyES0_INS1_6ScalarEES3_S0_INS1_12ChunkedArrayEES0_INS1_11RecordBatchEES0_INS1_5TableEEEERKT_RKSt7variantIJDpT0_EE(ptr noundef nonnull align 8 dereferenceable(17) %16)
  call void @_ZN5arrow9MakeArrayERKSt10shared_ptrINS_9ArrayDataEE(ptr dead_on_unwind writable sret(%"class.std::shared_ptr.22") align 8 %0, ptr noundef nonnull align 8 dereferenceable(16) %17)
  ret void
}