; Function Attrs: mustprogress uwtable
define void @_ZNK5arrow5Datum10make_arrayEv(ptr dead_on_unwind noalias writable sret(%"class.std::shared_ptr.22") align 8 %0, ptr noundef nonnull align 8 dereferenceable(24) %1) local_unnamed_addr #3 align 2 {
  %3 = getelementptr inbounds nuw i8, ptr %1, i64 16
  %4 = load i8, ptr %3, align 8, !tbaa !41
  %.not.i.i = icmp eq i8 %4, 2
  br i1 %.not.i.i, label %_ZSt3getISt10shared_ptrIN5arrow9ArrayDataEEJNS1_5Datum5EmptyES0_INS1_6ScalarEES3_S0_INS1_12ChunkedArrayEES0_INS1_11RecordBatchEES0_INS1_5TableEEEERKT_RKSt7variantIJDpT0_EE.exit, label %5

5:                                                ; preds = %2
  %6 = tail call ptr @__cxa_allocate_exception(i64 16) #22
  store ptr getelementptr inbounds nuw inrange(-16, 24) (i8, ptr @_ZTVSt18bad_variant_access, i64 16), ptr %6, align 8, !tbaa !142
  %7 = getelementptr inbounds nuw i8, ptr %6, i64 8
  store ptr @.str.16, ptr %7, align 8, !tbaa !181
  tail call void @__cxa_throw(ptr nonnull %6, ptr nonnull @_ZTISt18bad_variant_access, ptr nonnull @_ZNSt9exceptionD2Ev) #25
  unreachable

_ZSt3getISt10shared_ptrIN5arrow9ArrayDataEEJNS1_5Datum5EmptyES0_INS1_6ScalarEES3_S0_INS1_12ChunkedArrayEES0_INS1_11RecordBatchEES0_INS1_5TableEEEERKT_RKSt7variantIJDpT0_EE.exit: ; preds = %2
  tail call void @_ZN5arrow9MakeArrayERKSt10shared_ptrINS_9ArrayDataEE(ptr dead_on_unwind writable sret(%"class.std::shared_ptr.22") align 8 %0, ptr noundef nonnull align 8 dereferenceable(16) %1)
  ret void
}